Certificate:
    Data:
        Version: 3 (0x2)
        Serial Number: 1 (0x1)
    Signature Algorithm: sha512WithRSAEncryption
        Issuer: C=XX, CN=Test CA, ST=Great Mesra Plateau, L=Mos Eisley, O=Space Port
        Validity
            Not Before: Dec 28 13:40:35 2017 GMT
            Not After : Dec 28 13:40:35 2019 GMT
        Subject: C=XX, ST=Great Mesra Plateau, L=Mos Eisley, O=Cantina, OU=Entertainment Systems, CN=cantina
        Subject Public Key Info:
            Public Key Algorithm: rsaEncryption
                Public-Key: (4096 bit)
                Modulus:
                    00:c4:33:9b:d0:0f:1a:7b:8a:fa:9a:b5:41:04:ea:
                    9e:b5:06:48:75:32:54:48:1b:d7:65:f2:72:c4:ed:
                    a5:8e:75:79:53:c1:ca:4b:2f:a6:b0:93:60:a4:05:
                    cd:74:69:5c:e5:3c:02:f0:87:1c:e1:ea:6e:da:00:
                    98:5e:37:98:f9:b7:a8:73:65:9e:31:66:9a:26:2c:
                    23:ae:33:a6:71:94:3c:48:c6:e0:cb:ff:87:ac:a4:
                    11:09:37:7f:19:fb:a1:41:a3:42:cc:3f:35:79:03:
                    05:64:c2:af:39:46:99:7a:0a:0c:f9:fa:13:04:0e:
                    47:bf:57:27:89:32:6e:c3:f7:34:1e:5e:0e:df:a3:
                    dd:57:94:d8:99:cb:cf:e6:30:3a:8d:7a:0c:75:7d:
                    71:4f:c8:94:48:7f:ed:f8:a6:9b:d6:73:c7:cd:7c:
                    30:8d:17:40:e3:3b:93:40:38:3e:99:fc:20:24:4e:
                    91:8a:a4:89:e5:18:80:c4:15:b7:54:ee:fa:f8:9d:
                    45:8b:0b:e4:5f:26:1a:64:71:37:cf:3f:9b:2e:af:
                    c8:03:4c:e1:a3:b6:91:b5:71:46:d1:6b:f0:1d:95:
                    93:fa:cb:1a:dd:21:51:c0:ac:07:4a:7b:09:92:92:
                    4a:cf:7a:36:06:1d:76:a8:d8:c5:18:39:1d:77:8b:
                    6d:0d:c2:c9:4e:73:5e:14:d4:57:92:8f:9d:88:84:
                    b5:e6:28:f0:4d:ab:71:5b:e4:d8:04:0c:4e:87:d0:
                    76:b7:28:45:2c:d1:93:bf:9c:dd:c7:ea:0d:56:bf:
                    45:e6:c2:c1:d7:45:63:08:62:67:af:3d:7c:59:63:
                    2e:f7:ac:6d:b8:9e:c2:aa:3d:69:d8:92:f5:6a:94:
                    01:8e:2b:17:cd:df:07:86:b0:12:63:3e:d2:e9:32:
                    bd:a9:cf:7e:ee:37:67:d4:0f:1b:02:d1:c6:e3:b3:
                    7b:0b:65:a6:79:76:72:9d:dd:bc:e9:d6:41:c8:fa:
                    53:6f:7e:08:fd:10:ee:19:79:3b:bc:ba:07:a3:a1:
                    e4:12:84:05:b8:b8:2a:e9:48:65:28:5e:3a:5f:9e:
                    aa:20:23:32:06:13:45:24:43:fc:c4:ee:d2:45:d9:
                    a6:95:16:c5:23:0f:1f:91:29:10:62:43:b8:71:97:
                    e3:dc:5e:fc:05:de:2c:27:07:2b:19:f0:62:96:3f:
                    2c:f7:47:b3:f1:60:f4:19:76:a4:f0:be:4b:75:14:
                    0e:38:b5:5f:83:30:d4:bd:37:de:ae:a7:63:f9:fa:
                    6f:48:c2:27:e3:fb:f0:61:c0:8a:17:7d:07:55:9b:
                    59:14:2b:a0:f8:ad:3e:80:50:a8:e2:0a:3a:6c:11:
                    fe:27:0d
                Exponent: 65537 (0x10001)
        X509v3 extensions:
            X509v3 Basic Constraints: 
                CA:FALSE
            X509v3 Extended Key Usage: 
                TLS Web Client Authentication, TLS Web Server Authentication
            X509v3 Key Usage: 
                Digital Signature, Key Encipherment
            X509v3 Subject Key Identifier: 
                55:08:5C:51:71:53:2D:1F:B3:B6:39:8F:C3:75:54:60:7E:2B:FC:FB
            X509v3 Authority Key Identifier: 
                keyid:00:FE:F4:8C:B9:EF:F2:38:82:AE:0D:B9:AF:3F:C8:09:E0:AE:25:2B

            X509v3 Subject Alternative Name: 
                DNS:localhost, DNS:localhost, DNS:myhost, IP Address:127.0.0.1, IP Address:127.0.0.1
    Signature Algorithm: sha512WithRSAEncryption
         0e:c4:ff:8b:19:84:91:f1:f1:d4:21:bc:bb:bb:66:06:18:e4:
         c1:4c:d3:8a:2a:89:8e:59:43:17:37:b5:a5:5c:b5:ec:7f:de:
         c4:b2:f9:bb:07:a4:59:7f:3a:93:3e:3c:17:6f:d2:23:5b:ef:
         0e:6a:e2:d2:51:a8:4d:b5:fb:0a:dc:65:15:7e:7c:b4:f8:f5:
         9f:c7:7e:7a:07:0f:b1:64:80:eb:5a:93:05:c3:c2:07:47:ca:
         3b:e4:27:e9:52:3f:b5:7c:37:1e:18:94:01:a2:3f:ae:01:fd:
         8d:42:53:fe:ef:77:ff:4c:b0:b8:ba:8a:51:7b:52:26:f8:1a:
         f8:a1:fb:b0:df:7c:7f:59:95:df:c9:65:82:e3:6c:ab:22:77:
         3c:5c:5c:ef:be:f7:80:19:5c:9d:8c:6e:15:5f:6a:1f:2e:9d:
         5f:cd:66:9c:e2:e3:fb:0e:11:d6:0a:86:d6:4c:19:ab:fc:5b:
         5d:6f:0c:80:bd:1d:36:67:f0:e7:05:a9:7e:34:d1:c1:7d:5d:
         44:6b:4a:08:6c:3e:32:3e:51:c6:23:52:83:55:c0:23:67:46:
         1c:e6:f8:e9:bb:f0:b2:ea:ee:98:bf:0a:97:a8:99:d0:b0:bb:
         a1:9c:d5:be:59:45:20:0c:73:8e:04:5f:60:d4:0c:17:f7:85:
         00:a9:41:ae:89:b0:3d:c8:e1:d3:f4:b6:9d:c6:3d:83:bb:76:
         22:99:03:1b:d1:66:39:1c:dd:8c:cd:83:72:77:84:bb:93:5a:
         63:6a:47:46:71:f0:6c:48:e6:f7:27:f4:4f:ac:dd:97:b5:9a:
         cb:e6:a3:a4:6e:6f:e2:01:d2:fb:9d:9d:a3:83:97:bb:fe:7b:
         eb:da:c6:f7:94:c4:96:1b:36:d2:95:b6:b8:48:a7:d3:c4:e9:
         ac:f7:97:20:84:97:ca:24:ca:c8:8f:08:7f:34:b4:7c:77:08:
         32:27:4a:03:a2:d1:0e:a2:2f:3c:62:2e:2e:5f:6d:1d:4a:8b:
         8a:43:01:5f:dd:7e:d8:fd:d4:0f:05:ad:be:95:57:c3:ca:9f:
         fd:fd:25:b1:2b:37:72:6d:80:c6:48:48:67:dc:33:a8:5d:fd:
         4b:d0:af:65:6d:7e:db:4a:38:5e:2f:b1:fb:8d:a3:5c:b1:a5:
         65:72:0c:fc:94:3b:fa:db:b1:1f:9c:37:5d:e2:7a:f3:bb:5c:
         0c:b8:20:78:d7:f3:9b:e3:c7:55:fd:81:ee:a7:25:a2:e8:d8:
         8b:77:8c:d6:d5:86:cf:a1:d3:9a:74:82:38:7c:8e:ff:30:5d:
         30:84:50:21:02:22:bb:57:a9:71:f2:b5:9a:04:c1:2d:41:9a:
         1f:41:f4:79:8a:72:6c:cc
-----BEGIN CERTIFICATE-----
MIIGFzCCA/+gAwIBAgIBATANBgkqhkiG9w0BAQ0FADBnMQswCQYDVQQGEwJYWDEQ
MA4GA1UEAwwHVGVzdCBDQTEcMBoGA1UECAwTR3JlYXQgTWVzcmEgUGxhdGVhdTET
MBEGA1UEBwwKTW9zIEVpc2xleTETMBEGA1UECgwKU3BhY2UgUG9ydDAeFw0xNzEy
MjgxMzQwMzVaFw0xOTEyMjgxMzQwMzVaMIGEMQswCQYDVQQGEwJYWDEcMBoGA1UE
CAwTR3JlYXQgTWVzcmEgUGxhdGVhdTETMBEGA1UEBwwKTW9zIEVpc2xleTEQMA4G
A1UECgwHQ2FudGluYTEeMBwGA1UECwwVRW50ZXJ0YWlubWVudCBTeXN0ZW1zMRAw
DgYDVQQDDAdjYW50aW5hMIICIjANBgkqhkiG9w0BAQEFAAOCAg8AMIICCgKCAgEA
xDOb0A8ae4r6mrVBBOqetQZIdTJUSBvXZfJyxO2ljnV5U8HKSy+msJNgpAXNdGlc
5TwC8Icc4epu2gCYXjeY+beoc2WeMWaaJiwjrjOmcZQ8SMbgy/+HrKQRCTd/Gfuh
QaNCzD81eQMFZMKvOUaZegoM+foTBA5Hv1cniTJuw/c0Hl4O36PdV5TYmcvP5jA6
jXoMdX1xT8iUSH/t+Kab1nPHzXwwjRdA4zuTQDg+mfwgJE6RiqSJ5RiAxBW3VO76
+J1FiwvkXyYaZHE3zz+bLq/IA0zho7aRtXFG0WvwHZWT+ssa3SFRwKwHSnsJkpJK
z3o2Bh12qNjFGDkdd4ttDcLJTnNeFNRXko+diIS15ijwTatxW+TYBAxOh9B2tyhF
LNGTv5zdx+oNVr9F5sLB10VjCGJnrz18WWMu96xtuJ7Cqj1p2JL1apQBjisXzd8H
hrASYz7S6TK9qc9+7jdn1A8bAtHG47N7C2WmeXZynd286dZByPpTb34I/RDuGXk7
vLoHo6HkEoQFuLgq6UhlKF46X56qICMyBhNFJEP8xO7SRdmmlRbFIw8fkSkQYkO4
cZfj3F78Bd4sJwcrGfBilj8s90ez8WD0GXak8L5LdRQOOLVfgzDUvTferqdj+fpv
SMIn4/vwYcCKF30HVZtZFCug+K0+gFCo4go6bBH+Jw0CAwEAAaOBrzCBrDAJBgNV
HRMEAjAAMB0GA1UdJQQWMBQGCCsGAQUFBwMCBggrBgEFBQcDATALBgNVHQ8EBAMC
BaAwHQYDVR0OBBYEFFUIXFFxUy0fs7Y5j8N1VGB+K/z7MB8GA1UdIwQYMBaAFAD+
9Iy57/I4gq4Nua8/yAngriUrMDMGA1UdEQQsMCqCCWxvY2FsaG9zdIIJbG9jYWxo
b3N0ggZteWhvc3SHBH8AAAGHBH8AAAEwDQYJKoZIhvcNAQENBQADggIBAA7E/4sZ
hJHx8dQhvLu7ZgYY5MFM04oqiY5ZQxc3taVctex/3sSy+bsHpFl/OpM+PBdv0iNb
7w5q4tJRqE21+wrcZRV+fLT49Z/HfnoHD7FkgOtakwXDwgdHyjvkJ+lSP7V8Nx4Y
lAGiP64B/Y1CU/7vd/9MsLi6ilF7Uib4Gvih+7DffH9Zld/JZYLjbKsidzxcXO++
94AZXJ2MbhVfah8unV/NZpzi4/sOEdYKhtZMGav8W11vDIC9HTZn8OcFqX400cF9
XURrSghsPjI+UcYjUoNVwCNnRhzm+Om78LLq7pi/CpeomdCwu6Gc1b5ZRSAMc44E
X2DUDBf3hQCpQa6JsD3I4dP0tp3GPYO7diKZAxvRZjkc3YzNg3J3hLuTWmNqR0Zx
8GxI5vcn9E+s3Ze1msvmo6Rub+IB0vudnaODl7v+e+vaxveUxJYbNtKVtrhIp9PE
6az3lyCEl8okysiPCH80tHx3CDInSgOi0Q6iLzxiLi5fbR1Ki4pDAV/dftj91A8F
rb6VV8PKn/39JbErN3JtgMZISGfcM6hd/UvQr2VtfttKOF4vsfuNo1yxpWVyDPyU
O/rbsR+cN13ievO7XAy4IHjX85vjx1X9ge6nJaLo2It3jNbVhs+h05p0gjh8jv8w
XTCEUCECIrtXqXHytZoEwS1Bmh9B9HmKcmzM
-----END CERTIFICATE-----
