Certificate:
    Data:
        Version: 3 (0x2)
        Serial Number: 3 (0x3)
    Signature Algorithm: sha512WithRSAEncryption
        Issuer: C=XX, CN=Test CA, ST=Great Mesra Plateau, L=Mos Eisley, O=Space Port
        Validity
            Not Before: Dec 29 18:53:16 2017 GMT
            Not After : Dec 29 18:53:16 2019 GMT
        Subject: C=XX, ST=Somewhere, L=Mos Eisley, O=Star Wars, CN=cantina
        Subject Public Key Info:
            Public Key Algorithm: rsaEncryption
                Public-Key: (4096 bit)
                Modulus:
                    00:ba:d5:02:be:ca:66:f9:3e:d4:99:d2:be:86:aa:
                    5d:fc:4a:f0:ef:d2:8a:f6:c1:59:8d:34:3f:5b:75:
                    15:1f:20:dc:49:b3:f5:a2:93:6a:02:75:0c:2f:1e:
                    ed:bb:72:07:52:50:3d:af:fc:73:b3:5a:24:12:6a:
                    e5:b5:28:8e:96:97:97:6e:25:04:a2:dd:61:d7:45:
                    c7:41:3a:31:d1:ec:c2:f7:78:22:1b:78:cb:49:4c:
                    2f:de:2c:bd:69:a5:7e:f1:e3:0d:7d:88:33:bf:a8:
                    8a:f3:42:0f:7c:5e:9c:e0:db:34:8d:ef:e6:44:f0:
                    d8:c3:19:83:ae:d8:68:0c:64:c3:7b:6d:f6:ef:03:
                    68:08:95:9f:ee:98:c8:ff:08:f1:c2:ec:fd:9a:47:
                    42:15:ec:41:56:62:a6:29:5c:66:5c:c9:56:4d:49:
                    c8:90:ef:e9:c4:a0:dd:d9:c9:20:e9:d4:3f:69:d9:
                    7a:9b:57:f7:e1:a1:b2:ab:59:f0:61:32:a7:e4:1e:
                    3f:e5:b8:81:46:ce:a3:fc:cd:69:d3:45:47:9f:56:
                    fe:be:f0:f0:e8:fb:0c:05:17:ee:ee:3f:76:9d:ef:
                    5e:40:0f:da:c0:73:4d:ce:46:65:64:2b:bf:20:dc:
                    d5:95:5d:5f:c3:ba:c6:81:a9:28:5c:96:54:f9:e3:
                    fc:d3:af:53:ef:7d:9a:b3:09:c0:1c:a0:2d:e6:dd:
                    fb:42:f0:3b:d6:c4:3b:5c:6f:97:3b:bc:00:a8:17:
                    61:c9:62:ea:1c:94:03:38:be:d1:8f:d7:77:cb:ce:
                    d3:40:c3:e3:87:48:32:89:44:65:09:61:1e:59:80:
                    c8:56:a4:2f:13:94:be:f3:ef:53:7e:76:4b:a4:a3:
                    62:64:a9:34:9a:a6:25:f2:18:c4:3a:38:e9:7b:94:
                    e5:ca:ea:ef:b2:09:33:e8:ef:c8:35:06:01:1c:85:
                    3c:c3:f6:8b:79:0a:ce:1b:2b:34:45:1d:5d:33:1a:
                    97:88:91:57:ec:57:05:b4:ac:c1:57:aa:e6:e1:e2:
                    b9:6f:57:98:9e:0e:b4:f2:5f:41:6c:ce:9e:2c:52:
                    71:9a:f7:1c:a0:85:c6:f7:b1:c7:cf:30:2c:77:da:
                    e2:97:ed:41:20:87:78:5b:cd:23:1d:29:e5:6f:dc:
                    d8:c2:87:08:ed:18:e6:ee:cc:d8:11:37:e0:50:8a:
                    9b:ea:04:e5:59:ad:d6:d3:7f:43:87:3e:59:d1:8d:
                    93:4b:25:bb:e9:06:d8:df:b9:51:2c:51:aa:d1:98:
                    ca:8d:3e:81:69:85:ed:f1:b6:32:7a:d7:7e:bc:d7:
                    8b:9f:07:cd:7a:d2:1c:d0:9b:38:29:ee:5b:26:d7:
                    4a:32:2f
                Exponent: 65537 (0x10001)
        X509v3 extensions:
            X509v3 Basic Constraints: 
                CA:FALSE
            X509v3 Extended Key Usage: 
                TLS Web Client Authentication, TLS Web Server Authentication
            X509v3 Key Usage: 
                Digital Signature, Key Encipherment
            X509v3 Subject Key Identifier: 
                AA:6A:B2:22:89:A6:77:A4:AD:E3:A8:64:28:87:E1:59:40:4B:39:DD
            X509v3 Authority Key Identifier: 
                keyid:00:FE:F4:8C:B9:EF:F2:38:82:AE:0D:B9:AF:3F:C8:09:E0:AE:25:2B

            X509v3 Subject Alternative Name: 
                DNS:cantina, IP Address:127.0.0.1
    Signature Algorithm: sha512WithRSAEncryption
         69:e0:60:c4:af:d3:d1:15:37:38:c7:1e:cd:e3:8f:dc:31:fa:
         77:e0:78:77:93:11:af:85:ab:46:e4:b9:66:b5:30:ae:78:6b:
         88:41:c0:0a:2b:26:bc:31:47:3e:0c:ca:df:26:fe:37:69:94:
         06:87:9d:ca:1b:27:5c:8b:97:fa:d2:a3:f2:23:9b:f9:8e:39:
         e4:4a:c3:e4:0e:ad:30:b0:37:60:81:1f:d5:cd:bd:db:b1:38:
         15:d9:ea:8b:0a:8a:62:5f:fd:8a:78:47:66:db:74:16:8f:f8:
         67:de:bf:51:bb:9d:ac:47:6c:8e:3b:c2:5b:5f:0d:b9:af:0e:
         45:34:7d:f9:d3:b0:e9:be:73:42:57:3f:f7:98:88:40:3d:ad:
         6d:0f:d7:0f:70:5c:01:03:1f:fc:50:62:b8:1b:cc:dc:7f:d4:
         b1:e5:f7:00:9f:89:0f:43:36:e7:c9:05:b2:bc:d2:ed:e8:cc:
         32:cc:30:5d:ab:7e:48:b1:2f:f6:83:ac:46:48:91:60:a8:bf:
         78:61:4f:e6:f6:e3:2d:31:15:8e:3f:35:18:ff:23:be:ae:13:
         ea:2d:3e:68:91:1c:98:2e:3e:a7:9b:4c:f8:54:fe:01:a9:6a:
         ed:69:e3:f1:02:92:56:74:7f:2f:70:ef:56:b0:0a:8d:ec:c6:
         86:48:c2:ec:72:71:64:2b:2b:40:f0:39:9b:a1:9c:b6:1b:12:
         cc:0f:2b:7d:6d:ad:af:47:ca:18:ad:b4:03:21:a4:a8:71:8f:
         f7:2c:8d:d5:cf:c3:8c:2e:2d:71:e8:14:8c:c6:b7:0f:1d:ac:
         66:97:99:9a:e2:bd:6e:3f:39:62:d1:e9:34:15:a3:33:5e:b8:
         3b:f6:67:08:85:96:17:c7:4d:51:7c:06:65:eb:ff:f1:63:53:
         99:36:cd:c0:5b:14:5a:28:55:f9:31:9b:27:c2:0c:17:1d:66:
         7c:bb:8f:ed:6c:62:ae:af:a4:8e:4d:76:e7:b4:70:fb:7e:6e:
         a7:d6:b6:e0:c1:1a:d8:68:ca:c9:b4:e4:10:70:63:43:a8:c3:
         5f:4e:9e:05:22:09:50:6f:0f:60:f9:72:1a:e2:ac:f0:72:57:
         29:26:cf:c6:b7:62:6e:55:46:68:0d:a6:88:e6:9f:d1:35:19:
         ff:75:13:d0:d7:34:78:c1:28:54:fe:b3:b3:79:34:41:02:53:
         6a:55:55:bc:d7:2b:18:4d:af:f8:b9:c3:2b:8d:c3:bd:70:df:
         fb:98:1b:6e:5c:73:50:2f:aa:ba:6a:67:56:15:f4:89:b2:57:
         ed:b9:83:da:52:70:95:0a:e5:8a:89:2a:a1:42:c0:e2:72:ad:
         6b:c4:dd:cb:65:9d:44:1a
-----BEGIN CERTIFICATE-----
MIIF0zCCA7ugAwIBAgIBAzANBgkqhkiG9w0BAQ0FADBnMQswCQYDVQQGEwJYWDEQ
MA4GA1UEAwwHVGVzdCBDQTEcMBoGA1UECAwTR3JlYXQgTWVzcmEgUGxhdGVhdTET
MBEGA1UEBwwKTW9zIEVpc2xleTETMBEGA1UECgwKU3BhY2UgUG9ydDAeFw0xNzEy
MjkxODUzMTZaFw0xOTEyMjkxODUzMTZaMFwxCzAJBgNVBAYTAlhYMRIwEAYDVQQI
DAlTb21ld2hlcmUxEzARBgNVBAcMCk1vcyBFaXNsZXkxEjAQBgNVBAoMCVN0YXIg
V2FyczEQMA4GA1UEAwwHY2FudGluYTCCAiIwDQYJKoZIhvcNAQEBBQADggIPADCC
AgoCggIBALrVAr7KZvk+1JnSvoaqXfxK8O/SivbBWY00P1t1FR8g3Emz9aKTagJ1
DC8e7btyB1JQPa/8c7NaJBJq5bUojpaXl24lBKLdYddFx0E6MdHswvd4Iht4y0lM
L94svWmlfvHjDX2IM7+oivNCD3xenODbNI3v5kTw2MMZg67YaAxkw3tt9u8DaAiV
n+6YyP8I8cLs/ZpHQhXsQVZipilcZlzJVk1JyJDv6cSg3dnJIOnUP2nZeptX9+Gh
sqtZ8GEyp+QeP+W4gUbOo/zNadNFR59W/r7w8Oj7DAUX7u4/dp3vXkAP2sBzTc5G
ZWQrvyDc1ZVdX8O6xoGpKFyWVPnj/NOvU+99mrMJwBygLebd+0LwO9bEO1xvlzu8
AKgXYcli6hyUAzi+0Y/Xd8vO00DD44dIMolEZQlhHlmAyFakLxOUvvPvU352S6Sj
YmSpNJqmJfIYxDo46XuU5crq77IJM+jvyDUGARyFPMP2i3kKzhsrNEUdXTMal4iR
V+xXBbSswVeq5uHiuW9XmJ4OtPJfQWzOnixScZr3HKCFxvexx88wLHfa4pftQSCH
eFvNIx0p5W/c2MKHCO0Y5u7M2BE34FCKm+oE5Vmt1tN/Q4c+WdGNk0slu+kG2N+5
USxRqtGYyo0+gWmF7fG2MnrXfrzXi58HzXrSHNCbOCnuWybXSjIvAgMBAAGjgZQw
gZEwCQYDVR0TBAIwADAdBgNVHSUEFjAUBggrBgEFBQcDAgYIKwYBBQUHAwEwCwYD
VR0PBAQDAgWgMB0GA1UdDgQWBBSqarIiiaZ3pK3jqGQoh+FZQEs53TAfBgNVHSME
GDAWgBQA/vSMue/yOIKuDbmvP8gJ4K4lKzAYBgNVHREEETAPggdjYW50aW5hhwR/
AAABMA0GCSqGSIb3DQEBDQUAA4ICAQBp4GDEr9PRFTc4xx7N44/cMfp34Hh3kxGv
hatG5LlmtTCueGuIQcAKKya8MUc+DMrfJv43aZQGh53KGydci5f60qPyI5v5jjnk
SsPkDq0wsDdggR/Vzb3bsTgV2eqLCopiX/2KeEdm23QWj/hn3r9Ru52sR2yOO8Jb
Xw25rw5FNH3507DpvnNCVz/3mIhAPa1tD9cPcFwBAx/8UGK4G8zcf9Sx5fcAn4kP
QzbnyQWyvNLt6MwyzDBdq35IsS/2g6xGSJFgqL94YU/m9uMtMRWOPzUY/yO+rhPq
LT5okRyYLj6nm0z4VP4BqWrtaePxApJWdH8vcO9WsAqN7MaGSMLscnFkKytA8Dmb
oZy2GxLMDyt9ba2vR8oYrbQDIaSocY/3LI3Vz8OMLi1x6BSMxrcPHaxml5ma4r1u
Pzli0ek0FaMzXrg79mcIhZYXx01RfAZl6//xY1OZNs3AWxRaKFX5MZsnwgwXHWZ8
u4/tbGKur6SOTXbntHD7fm6n1rbgwRrYaMrJtOQQcGNDqMNfTp4FIglQbw9g+XIa
4qzwclcpJs/Gt2JuVUZoDaaI5p/RNRn/dRPQ1zR4wShU/rOzeTRBAlNqVVW81ysY
Ta/4ucMrjcO9cN/7mBtuXHNQL6q6amdWFfSJslftuYPaUnCVCuWKiSqhQsDicq1r
xN3LZZ1EGg==
-----END CERTIFICATE-----
