Certificate:
    Data:
        Version: 3 (0x2)
        Serial Number: 2 (0x2)
    Signature Algorithm: sha512WithRSAEncryption
        Issuer: C=XX, CN=Test CA, ST=Great Mesra Plateau, L=Mos Eisley, O=Space Port
        Validity
            Not Before: Dec 28 13:42:14 2017 GMT
            Not After : Dec 28 13:42:14 2019 GMT
        Subject: C=XX, ST=Space, L=Nowhere, O=Millenium Falcon, CN=Han Solo
        Subject Public Key Info:
            Public Key Algorithm: rsaEncryption
                Public-Key: (4096 bit)
                Modulus:
                    00:b4:1f:11:ab:0c:0c:b8:74:8e:8b:ed:5f:65:f5:
                    07:4a:bc:4c:ec:19:e7:2f:2f:a4:55:ba:4e:77:64:
                    44:da:53:89:4c:6f:6b:ac:da:ae:c1:d8:05:91:79:
                    5d:b5:a8:0e:13:10:10:2f:15:f0:e7:81:33:00:86:
                    a1:0b:19:70:4a:21:4d:22:b6:35:4d:b0:d4:56:9c:
                    88:c2:2f:c2:cb:51:bf:2c:3b:70:24:29:41:d9:46:
                    37:8a:00:68:5e:ed:f9:f9:92:59:6a:ef:9a:18:de:
                    19:78:40:42:2a:bf:5e:51:0c:18:93:82:73:85:ce:
                    d4:d2:ff:40:5b:2b:6e:b2:78:7f:be:72:b7:87:06:
                    2a:59:84:c8:75:45:91:27:3b:4f:13:9d:dd:03:d3:
                    49:1f:c2:2e:a2:df:d4:29:64:83:e5:b3:da:6e:7e:
                    a4:51:67:77:c3:b9:9e:59:da:a4:49:9c:3f:92:fe:
                    82:da:cc:7f:93:96:d1:ad:d5:1b:ce:55:93:3a:5a:
                    e8:55:d3:eb:b3:ba:1d:35:ae:c2:f6:eb:74:f3:b1:
                    99:15:4e:0e:33:bb:93:d5:58:91:8e:fc:84:2e:f5:
                    18:8e:d3:7c:3d:f9:59:07:c9:58:c6:78:f2:0c:08:
                    81:79:60:e7:12:2c:b7:03:52:fa:cd:c8:b7:2a:82:
                    5a:dd:b2:78:aa:cb:b0:b4:1d:1a:17:16:cb:7f:fd:
                    6a:8b:ce:28:b7:46:c4:17:01:ed:81:53:8a:ce:56:
                    59:d7:3c:7e:86:43:07:8b:ae:4f:58:90:56:e4:a9:
                    1e:45:48:50:73:67:cf:c3:d9:04:9b:7e:1c:1a:06:
                    80:e7:b1:b8:da:50:9a:41:c3:55:5e:6f:c5:8a:2b:
                    fa:0b:05:16:65:4b:06:de:44:27:fe:9f:90:bc:ab:
                    b7:47:f6:2a:de:a0:6b:d5:f5:42:f8:0a:c0:c2:53:
                    ca:70:93:1a:34:9e:dd:6d:20:a5:9b:6c:bf:2a:3f:
                    c2:f3:99:2f:28:e6:0e:48:08:d8:f9:c0:6d:43:03:
                    16:78:f5:96:c1:5a:cc:5f:f0:59:24:00:23:e4:81:
                    8c:31:a8:69:6c:93:a7:4d:80:c4:41:fe:67:e0:c6:
                    49:0e:b0:f6:71:3f:4a:95:dc:a1:95:5e:4a:ec:ab:
                    d5:f9:67:81:87:5f:54:cc:eb:19:fa:14:70:59:3c:
                    84:a9:1d:be:75:e0:e6:d3:c4:6d:52:cd:a1:a3:fd:
                    d7:8c:d0:03:5c:5c:5c:06:21:d7:3b:4d:99:1d:52:
                    40:bb:e9:0f:0c:d5:08:ab:ed:10:63:56:3f:91:bc:
                    43:0f:c7:3d:48:15:70:c9:3f:8a:39:56:94:d5:23:
                    40:4a:3f
                Exponent: 65537 (0x10001)
        X509v3 extensions:
            X509v3 Basic Constraints: 
                CA:FALSE
            X509v3 Extended Key Usage: 
                TLS Web Client Authentication
            X509v3 Key Usage: 
                Digital Signature, Key Encipherment
            X509v3 Subject Key Identifier: 
                CD:57:E8:72:57:60:AE:A8:6D:7C:65:87:5D:76:31:D7:EA:4E:73:45
            X509v3 Authority Key Identifier: 
                keyid:00:FE:F4:8C:B9:EF:F2:38:82:AE:0D:B9:AF:3F:C8:09:E0:AE:25:2B

    Signature Algorithm: sha512WithRSAEncryption
         8e:08:a2:5b:94:ea:57:50:b3:e8:17:5a:8a:2c:32:f3:fb:e3:
         26:76:1b:71:6a:40:36:82:8b:a9:10:e5:68:a2:23:ef:a4:47:
         16:3d:41:90:3f:fb:58:fd:88:90:36:6e:94:a5:30:44:e6:45:
         e0:81:4f:4d:60:ea:8c:81:1a:eb:ac:8a:6c:10:03:72:85:50:
         31:68:bc:4c:d7:6e:9a:e4:9e:12:18:6b:85:33:b8:17:e0:3a:
         68:6a:02:3b:33:22:4c:dc:af:be:11:44:31:c1:ed:66:7a:7d:
         49:d1:da:73:2a:19:89:af:3a:a1:fc:71:62:14:4f:7f:24:34:
         c5:26:a2:d7:ba:be:8e:aa:29:2c:1a:75:3d:37:d9:69:d2:bb:
         56:19:5c:f9:00:a5:0b:ff:2e:f8:e1:09:0f:c4:84:3c:b8:ca:
         09:c3:79:10:c4:5b:e8:fd:e7:03:56:12:0f:50:9f:52:f1:8d:
         fe:3f:82:d8:6a:2d:49:4b:68:f7:cd:76:97:13:38:e9:b9:4b:
         8a:48:a4:1c:2f:be:fc:d9:77:68:86:ab:05:3e:f1:c1:66:c1:
         75:ff:f8:9e:77:78:20:ed:18:24:9a:b7:70:b9:16:11:b0:84:
         0e:8a:d9:75:6d:61:25:f5:88:ad:be:6e:2f:a8:63:ed:b8:cb:
         d0:30:6d:12:c4:2a:a2:33:44:8f:11:b0:bb:9b:c0:c3:d8:d4:
         55:45:ab:3f:da:32:b6:24:ab:e7:8b:fe:89:59:de:87:30:cf:
         14:64:ef:73:5e:1d:7d:09:6f:24:98:fe:24:8b:bc:b0:d6:7d:
         c7:a3:c6:db:e5:ee:b6:78:be:41:4b:ab:e2:3a:ad:67:95:14:
         31:6e:2e:56:dc:9d:41:ff:04:9b:fb:bd:6b:6f:41:8b:88:ea:
         9c:6a:95:53:be:2b:6b:b5:69:04:cf:0c:be:67:2d:ce:cb:17:
         26:2d:bc:f1:fa:f5:8c:fb:81:a3:58:d9:f4:1e:52:43:4f:d2:
         72:13:aa:02:4d:16:13:d5:ca:f9:89:90:41:d0:ba:bd:8c:06:
         08:72:a6:aa:d4:3f:8c:64:87:d1:ff:b3:6d:e6:bf:24:7d:53:
         92:f4:b1:08:16:1b:8f:9a:58:54:29:10:7e:cb:1f:7f:51:6b:
         8f:9a:94:5b:3c:1f:fa:aa:5f:33:70:1a:ea:83:8e:41:26:69:
         77:18:86:be:cf:46:7d:7b:4d:d9:39:38:33:46:8e:f8:6d:9d:
         e5:bd:38:7c:ee:24:4a:2a:ab:54:e4:cc:2d:6f:a2:4e:ac:3d:
         50:55:a3:b7:fd:05:d0:e2:76:72:d9:10:24:b9:2d:49:9f:d8:
         d0:a6:de:12:ee:ab:a3:8c
-----BEGIN CERTIFICATE-----
MIIFrjCCA5agAwIBAgIBAjANBgkqhkiG9w0BAQ0FADBnMQswCQYDVQQGEwJYWDEQ
MA4GA1UEAwwHVGVzdCBDQTEcMBoGA1UECAwTR3JlYXQgTWVzcmEgUGxhdGVhdTET
MBEGA1UEBwwKTW9zIEVpc2xleTETMBEGA1UECgwKU3BhY2UgUG9ydDAeFw0xNzEy
MjgxMzQyMTRaFw0xOTEyMjgxMzQyMTRaMF0xCzAJBgNVBAYTAlhYMQ4wDAYDVQQI
DAVTcGFjZTEQMA4GA1UEBwwHTm93aGVyZTEZMBcGA1UECgwQTWlsbGVuaXVtIEZh
bGNvbjERMA8GA1UEAwwISGFuIFNvbG8wggIiMA0GCSqGSIb3DQEBAQUAA4ICDwAw
ggIKAoICAQC0HxGrDAy4dI6L7V9l9QdKvEzsGecvL6RVuk53ZETaU4lMb2us2q7B
2AWReV21qA4TEBAvFfDngTMAhqELGXBKIU0itjVNsNRWnIjCL8LLUb8sO3AkKUHZ
RjeKAGhe7fn5kllq75oY3hl4QEIqv15RDBiTgnOFztTS/0BbK26yeH++creHBipZ
hMh1RZEnO08Tnd0D00kfwi6i39QpZIPls9pufqRRZ3fDuZ5Z2qRJnD+S/oLazH+T
ltGt1RvOVZM6WuhV0+uzuh01rsL263TzsZkVTg4zu5PVWJGO/IQu9RiO03w9+VkH
yVjGePIMCIF5YOcSLLcDUvrNyLcqglrdsniqy7C0HRoXFst//WqLzii3RsQXAe2B
U4rOVlnXPH6GQweLrk9YkFbkqR5FSFBzZ8/D2QSbfhwaBoDnsbjaUJpBw1Veb8WK
K/oLBRZlSwbeRCf+n5C8q7dH9ireoGvV9UL4CsDCU8pwkxo0nt1tIKWbbL8qP8Lz
mS8o5g5ICNj5wG1DAxZ49ZbBWsxf8FkkACPkgYwxqGlsk6dNgMRB/mfgxkkOsPZx
P0qV3KGVXkrsq9X5Z4GHX1TM6xn6FHBZPISpHb514ObTxG1SzaGj/deM0ANcXFwG
Idc7TZkdUkC76Q8M1Qir7RBjVj+RvEMPxz1IFXDJP4o5VpTVI0BKPwIDAQABo28w
bTAJBgNVHRMEAjAAMBMGA1UdJQQMMAoGCCsGAQUFBwMCMAsGA1UdDwQEAwIFoDAd
BgNVHQ4EFgQUzVfocldgrqhtfGWHXXYx1+pOc0UwHwYDVR0jBBgwFoAUAP70jLnv
8jiCrg25rz/ICeCuJSswDQYJKoZIhvcNAQENBQADggIBAI4IoluU6ldQs+gXWoos
MvP74yZ2G3FqQDaCi6kQ5WiiI++kRxY9QZA/+1j9iJA2bpSlMETmReCBT01g6oyB
GuusimwQA3KFUDFovEzXbprknhIYa4UzuBfgOmhqAjszIkzcr74RRDHB7WZ6fUnR
2nMqGYmvOqH8cWIUT38kNMUmote6vo6qKSwadT032WnSu1YZXPkApQv/LvjhCQ/E
hDy4ygnDeRDEW+j95wNWEg9Qn1Lxjf4/gthqLUlLaPfNdpcTOOm5S4pIpBwvvvzZ
d2iGqwU+8cFmwXX/+J53eCDtGCSat3C5FhGwhA6K2XVtYSX1iK2+bi+oY+24y9Aw
bRLEKqIzRI8RsLubwMPY1FVFqz/aMrYkq+eL/olZ3ocwzxRk73NeHX0JbySY/iSL
vLDWfcejxtvl7rZ4vkFLq+I6rWeVFDFuLlbcnUH/BJv7vWtvQYuI6pxqlVO+K2u1
aQTPDL5nLc7LFyYtvPH69Yz7gaNY2fQeUkNP0nITqgJNFhPVyvmJkEHQur2MBghy
pqrUP4xkh9H/s23mvyR9U5L0sQgWG4+aWFQpEH7LH39Ra4+alFs8H/qqXzNwGuqD
jkEmaXcYhr7PRn17Tdk5ODNGjvhtneW9OHzuJEoqq1TkzC1vok6sPVBVo7f9BdDi
dnLZECS5LUmf2NCm3hLuq6OM
-----END CERTIFICATE-----
